target datalayout = "e-m:e-p270:32:32-p271:32:32-p272:64:64-i64:64-i128:128-f80:128-n8:16:32:64-S128"
target triple = "x86_64-pc-linux-gnu"

%"class.cv::utils::trace::details::Region" = type <{ ptr, i32, [4 x i8] }>
%"class.cv::Range" = type { i32, i32 }
%"class.cv::ParallelLoopBody" = type { ptr }
%"struct.cv::hal::cpu_baseline::(anonymous namespace)::YCrCb2RGB_f" = type { i32, i32, i8, [4 x float] }
%"class.cv::impl::(anonymous namespace)::CvtColorLoop_Invoker.12" = type { %"class.cv::ParallelLoopBody", ptr, i64, ptr, i64, i32, ptr }

; Function Attrs: mustprogress nounwind uwtable
define internal noundef float @_ZN2cv4impl12_GLOBAL__N_112ColorChannelIfE3maxEv() #2 align 2 {
  ret float 1.000000e+00
}

; Function Attrs: mustprogress nounwind uwtable
define internal noundef float @_ZN2cv4impl12_GLOBAL__N_112ColorChannelIfE4halfEv() #2 align 2 {
  ret float 5.000000e-01
}

; Function Attrs: mustprogress nounwind uwtable
define linkonce_odr hidden void @_ZN2cv5utils5trace7details6RegionD2Ev(ptr noundef nonnull align 8 dereferenceable(12) %0) unnamed_addr #2 comdat align 2 personality ptr @__gxx_personality_v0 {
  %2 = alloca ptr, align 8
  store ptr %0, ptr %2, align 8
  %3 = load ptr, ptr %2, align 8
  %4 = getelementptr inbounds %"class.cv::utils::trace::details::Region", ptr %3, i32 0, i32 1
  %5 = load i32, ptr %4, align 8
  %6 = icmp ne i32 %5, 0
  br i1 %6, label %7, label %9

7:                                                ; preds = %1
  invoke void @_ZN2cv5utils5trace7details6Region7destroyEv(ptr noundef nonnull align 8 dereferenceable(12) %3)
          to label %8 unwind label %10

8:                                                ; preds = %7
  br label %9

9:                                                ; preds = %8, %1
  ret void

10:                                               ; preds = %7
  %11 = landingpad { ptr, i32 }
          catch ptr null
  %12 = extractvalue { ptr, i32 } %11, 0
  call void @__clang_call_terminate(ptr %12) #11
  unreachable
}

; Function Attrs: mustprogress uwtable
define internal void @_ZNK2cv3hal12cpu_baseline12_GLOBAL__N_111YCrCb2RGB_fIfEclEPKfPfi(ptr noundef nonnull align 4 dereferenceable(28) %0, ptr noundef %1, ptr noundef %2, i32 noundef %3) #0 align 2 {
  %5 = alloca ptr, align 8
  %6 = alloca ptr, align 8
  %7 = alloca ptr, align 8
  %8 = alloca i32, align 4
  %9 = alloca i32, align 4
  %10 = alloca i32, align 4
  %11 = alloca i32, align 4
  %12 = alloca float, align 4
  %13 = alloca float, align 4
  %14 = alloca float, align 4
  %15 = alloca float, align 4
  %16 = alloca float, align 4
  %17 = alloca float, align 4
  %18 = alloca i32, align 4
  %19 = alloca float, align 4
  %20 = alloca float, align 4
  %21 = alloca float, align 4
  %22 = alloca float, align 4
  %23 = alloca float, align 4
  %24 = alloca float, align 4
  store ptr %0, ptr %5, align 8
  store ptr %1, ptr %6, align 8
  store ptr %2, ptr %7, align 8
  store i32 %3, ptr %8, align 4
  %25 = load ptr, ptr %5, align 8
  %26 = getelementptr inbounds %"struct.cv::hal::cpu_baseline::(anonymous namespace)::YCrCb2RGB_f", ptr %25, i32 0, i32 0
  %27 = load i32, ptr %26, align 4
  store i32 %27, ptr %9, align 4
  %28 = getelementptr inbounds %"struct.cv::hal::cpu_baseline::(anonymous namespace)::YCrCb2RGB_f", ptr %25, i32 0, i32 1
  %29 = load i32, ptr %28, align 4
  store i32 %29, ptr %10, align 4
  %30 = getelementptr inbounds %"struct.cv::hal::cpu_baseline::(anonymous namespace)::YCrCb2RGB_f", ptr %25, i32 0, i32 2
  %31 = load i8, ptr %30, align 4
  %32 = trunc i8 %31 to i1
  %33 = xor i1 %32, true
  %34 = zext i1 %33 to i32
  store i32 %34, ptr %11, align 4
  %35 = call noundef float @_ZN2cv4impl12_GLOBAL__N_112ColorChannelIfE4halfEv()
  store float %35, ptr %12, align 4
  %36 = call noundef float @_ZN2cv4impl12_GLOBAL__N_112ColorChannelIfE3maxEv()
  store float %36, ptr %13, align 4
  %37 = getelementptr inbounds %"struct.cv::hal::cpu_baseline::(anonymous namespace)::YCrCb2RGB_f", ptr %25, i32 0, i32 3
  %38 = getelementptr inbounds [4 x float], ptr %37, i64 0, i64 0
  %39 = load float, ptr %38, align 4
  store float %39, ptr %14, align 4
  %40 = getelementptr inbounds %"struct.cv::hal::cpu_baseline::(anonymous namespace)::YCrCb2RGB_f", ptr %25, i32 0, i32 3
  %41 = getelementptr inbounds [4 x float], ptr %40, i64 0, i64 1
  %42 = load float, ptr %41, align 4
  store float %42, ptr %15, align 4
  %43 = getelementptr inbounds %"struct.cv::hal::cpu_baseline::(anonymous namespace)::YCrCb2RGB_f", ptr %25, i32 0, i32 3
  %44 = getelementptr inbounds [4 x float], ptr %43, i64 0, i64 2
  %45 = load float, ptr %44, align 4
  store float %45, ptr %16, align 4
  %46 = getelementptr inbounds %"struct.cv::hal::cpu_baseline::(anonymous namespace)::YCrCb2RGB_f", ptr %25, i32 0, i32 3
  %47 = getelementptr inbounds [4 x float], ptr %46, i64 0, i64 3
  %48 = load float, ptr %47, align 4
  store float %48, ptr %17, align 4
  store i32 0, ptr %18, align 4
  br label %49

49:                                               ; preds = %113, %4
  %50 = load i32, ptr %18, align 4
  %51 = load i32, ptr %8, align 4
  %52 = icmp slt i32 %50, %51
  br i1 %52, label %53, label %122

53:                                               ; preds = %49
  %54 = load ptr, ptr %6, align 8
  %55 = getelementptr inbounds float, ptr %54, i64 0
  %56 = load float, ptr %55, align 4
  store float %56, ptr %19, align 4
  %57 = load ptr, ptr %6, align 8
  %58 = load i32, ptr %11, align 4
  %59 = add nsw i32 1, %58
  %60 = sext i32 %59 to i64
  %61 = getelementptr inbounds float, ptr %57, i64 %60
  %62 = load float, ptr %61, align 4
  store float %62, ptr %20, align 4
  %63 = load ptr, ptr %6, align 8
  %64 = load i32, ptr %11, align 4
  %65 = sub nsw i32 2, %64
  %66 = sext i32 %65 to i64
  %67 = getelementptr inbounds float, ptr %63, i64 %66
  %68 = load float, ptr %67, align 4
  store float %68, ptr %21, align 4
  %69 = load float, ptr %19, align 4
  %70 = load float, ptr %21, align 4
  %71 = load float, ptr %12, align 4
  %72 = fsub float %70, %71
  %73 = load float, ptr %17, align 4
  %74 = call float @llvm.fmuladd.f32(float %72, float %73, float %69)
  store float %74, ptr %22, align 4
  %75 = load float, ptr %19, align 4
  %76 = load float, ptr %21, align 4
  %77 = load float, ptr %12, align 4
  %78 = fsub float %76, %77
  %79 = load float, ptr %16, align 4
  %80 = call float @llvm.fmuladd.f32(float %78, float %79, float %75)
  %81 = load float, ptr %20, align 4
  %82 = load float, ptr %12, align 4
  %83 = fsub float %81, %82
  %84 = load float, ptr %15, align 4
  %85 = call float @llvm.fmuladd.f32(float %83, float %84, float %80)
  store float %85, ptr %23, align 4
  %86 = load float, ptr %19, align 4
  %87 = load float, ptr %20, align 4
  %88 = load float, ptr %12, align 4
  %89 = fsub float %87, %88
  %90 = load float, ptr %14, align 4
  %91 = call float @llvm.fmuladd.f32(float %89, float %90, float %86)
  store float %91, ptr %24, align 4
  %92 = load float, ptr %22, align 4
  %93 = load ptr, ptr %7, align 8
  %94 = load i32, ptr %10, align 4
  %95 = sext i32 %94 to i64
  %96 = getelementptr inbounds float, ptr %93, i64 %95
  store float %92, ptr %96, align 4
  %97 = load float, ptr %23, align 4
  %98 = load ptr, ptr %7, align 8
  %99 = getelementptr inbounds float, ptr %98, i64 1
  store float %97, ptr %99, align 4
  %100 = load float, ptr %24, align 4
  %101 = load ptr, ptr %7, align 8
  %102 = load i32, ptr %10, align 4
  %103 = xor i32 %102, 2
  %104 = sext i32 %103 to i64
  %105 = getelementptr inbounds float, ptr %101, i64 %104
  store float %100, ptr %105, align 4
  %106 = load i32, ptr %9, align 4
  %107 = icmp eq i32 %106, 4
  br i1 %107, label %108, label %112

108:                                              ; preds = %53
  %109 = load float, ptr %13, align 4
  %110 = load ptr, ptr %7, align 8
  %111 = getelementptr inbounds float, ptr %110, i64 3
  store float %109, ptr %111, align 4
  br label %112

112:                                              ; preds = %108, %53
  br label %113

113:                                              ; preds = %112
  %114 = load i32, ptr %18, align 4
  %115 = add nsw i32 %114, 1
  store i32 %115, ptr %18, align 4
  %116 = load ptr, ptr %6, align 8
  %117 = getelementptr inbounds float, ptr %116, i64 3
  store ptr %117, ptr %6, align 8
  %118 = load i32, ptr %9, align 4
  %119 = load ptr, ptr %7, align 8
  %120 = sext i32 %118 to i64
  %121 = getelementptr inbounds float, ptr %119, i64 %120
  store ptr %121, ptr %7, align 8
  br label %49, !llvm.loop !24

122:                                              ; preds = %49
  ret void
}

; Function Attrs: mustprogress uwtable
define internal void @_ZNK2cv4impl12_GLOBAL__N_120CvtColorLoop_InvokerINS_3hal12cpu_baseline12_GLOBAL__N_111YCrCb2RGB_fIfEEEclERKNS_5RangeE(ptr noundef nonnull align 8 dereferenceable(56) %0, ptr noundef nonnull align 4 dereferenceable(8) %1) unnamed_addr #0 align 2 personality ptr @__gxx_personality_v0 {
  %3 = alloca ptr, align 8
  %4 = alloca ptr, align 8
  %5 = alloca %"class.cv::utils::trace::details::Region", align 8
  %6 = alloca ptr, align 8
  %7 = alloca ptr, align 8
  %8 = alloca i32, align 4
  %9 = alloca ptr, align 8
  %10 = alloca i32, align 4
  store ptr %0, ptr %3, align 8
  store ptr %1, ptr %4, align 8
  %11 = load ptr, ptr %3, align 8
  call void @_ZN2cv5utils5trace7details6RegionC1ERKNS3_21LocationStaticStorageE(ptr noundef nonnull align 8 dereferenceable(12) %5, ptr noundef nonnull align 8 dereferenceable(32) @_ZZNK2cv4impl12_GLOBAL__N_120CvtColorLoop_InvokerINS_3hal12cpu_baseline12_GLOBAL__N_111YCrCb2RGB_fIfEEEclERKNS_5RangeEE25__cv_trace_location_fn146)
  %12 = getelementptr inbounds %"class.cv::impl::(anonymous namespace)::CvtColorLoop_Invoker.12", ptr %11, i32 0, i32 1
  %13 = load ptr, ptr %12, align 8
  %14 = load ptr, ptr %4, align 8
  %15 = getelementptr inbounds %"class.cv::Range", ptr %14, i32 0, i32 0
  %16 = load i32, ptr %15, align 4
  %17 = sext i32 %16 to i64
  %18 = getelementptr inbounds %"class.cv::impl::(anonymous namespace)::CvtColorLoop_Invoker.12", ptr %11, i32 0, i32 2
  %19 = load i64, ptr %18, align 8
  %20 = mul i64 %17, %19
  %21 = getelementptr inbounds i8, ptr %13, i64 %20
  store ptr %21, ptr %6, align 8
  %22 = getelementptr inbounds %"class.cv::impl::(anonymous namespace)::CvtColorLoop_Invoker.12", ptr %11, i32 0, i32 3
  %23 = load ptr, ptr %22, align 8
  %24 = load ptr, ptr %4, align 8
  %25 = getelementptr inbounds %"class.cv::Range", ptr %24, i32 0, i32 0
  %26 = load i32, ptr %25, align 4
  %27 = sext i32 %26 to i64
  %28 = getelementptr inbounds %"class.cv::impl::(anonymous namespace)::CvtColorLoop_Invoker.12", ptr %11, i32 0, i32 4
  %29 = load i64, ptr %28, align 8
  %30 = mul i64 %27, %29
  %31 = getelementptr inbounds i8, ptr %23, i64 %30
  store ptr %31, ptr %7, align 8
  %32 = load ptr, ptr %4, align 8
  %33 = getelementptr inbounds %"class.cv::Range", ptr %32, i32 0, i32 0
  %34 = load i32, ptr %33, align 4
  store i32 %34, ptr %8, align 4
  br label %35

35:                                               ; preds = %49, %2
  %36 = load i32, ptr %8, align 4
  %37 = load ptr, ptr %4, align 8
  %38 = getelementptr inbounds %"class.cv::Range", ptr %37, i32 0, i32 1
  %39 = load i32, ptr %38, align 4
  %40 = icmp slt i32 %36, %39
  br i1 %40, label %41, label %64

41:                                               ; preds = %35
  %42 = getelementptr inbounds %"class.cv::impl::(anonymous namespace)::CvtColorLoop_Invoker.12", ptr %11, i32 0, i32 6
  %43 = load ptr, ptr %42, align 8
  %44 = load ptr, ptr %6, align 8
  %45 = load ptr, ptr %7, align 8
  %46 = getelementptr inbounds %"class.cv::impl::(anonymous namespace)::CvtColorLoop_Invoker.12", ptr %11, i32 0, i32 5
  %47 = load i32, ptr %46, align 8
  invoke void @_ZNK2cv3hal12cpu_baseline12_GLOBAL__N_111YCrCb2RGB_fIfEclEPKfPfi(ptr noundef nonnull align 4 dereferenceable(28) %43, ptr noundef %44, ptr noundef %45, i32 noundef %47)
          to label %48 unwind label %60

48:                                               ; preds = %41
  br label %49

49:                                               ; preds = %48
  %50 = load i32, ptr %8, align 4
  %51 = add nsw i32 %50, 1
  store i32 %51, ptr %8, align 4
  %52 = getelementptr inbounds %"class.cv::impl::(anonymous namespace)::CvtColorLoop_Invoker.12", ptr %11, i32 0, i32 2
  %53 = load i64, ptr %52, align 8
  %54 = load ptr, ptr %6, align 8
  %55 = getelementptr inbounds i8, ptr %54, i64 %53
  store ptr %55, ptr %6, align 8
  %56 = getelementptr inbounds %"class.cv::impl::(anonymous namespace)::CvtColorLoop_Invoker.12", ptr %11, i32 0, i32 4
  %57 = load i64, ptr %56, align 8
  %58 = load ptr, ptr %7, align 8
  %59 = getelementptr inbounds i8, ptr %58, i64 %57
  store ptr %59, ptr %7, align 8
  br label %35, !llvm.loop !23

60:                                               ; preds = %41
  %61 = landingpad { ptr, i32 }
          cleanup
  %62 = extractvalue { ptr, i32 } %61, 0
  store ptr %62, ptr %9, align 8
  %63 = extractvalue { ptr, i32 } %61, 1
  store i32 %63, ptr %10, align 4
  call void @_ZN2cv5utils5trace7details6RegionD2Ev(ptr noundef nonnull align 8 dereferenceable(12) %5) #10
  br label %65

64:                                               ; preds = %35
  call void @_ZN2cv5utils5trace7details6RegionD2Ev(ptr noundef nonnull align 8 dereferenceable(12) %5) #10
  ret void

65:                                               ; preds = %60
  %66 = load ptr, ptr %9, align 8
  %67 = load i32, ptr %10, align 4
  %68 = insertvalue { ptr, i32 } poison, ptr %66, 0
  %69 = insertvalue { ptr, i32 } %68, i32 %67, 1
  resume { ptr, i32 } %69
}