; Function Attrs: mustprogress uwtable
define internal void @_ZNK2cv4impl12_GLOBAL__N_120CvtColorLoop_InvokerINS_3hal12cpu_baseline12_GLOBAL__N_111YCrCb2RGB_fIfEEEclERKNS_5RangeE(ptr nocapture noundef nonnull readonly align 8 dereferenceable(56) %0, ptr nocapture noundef nonnull readonly align 4 dereferenceable(8) %1) unnamed_addr #0 align 2 personality ptr @__gxx_personality_v0 {
  %3 = alloca %"class.cv::utils::trace::details::Region", align 8
  call void @_ZN2cv5utils5trace7details6RegionC1ERKNS3_21LocationStaticStorageE(ptr noundef nonnull align 8 dereferenceable(12) %3, ptr noundef nonnull align 8 dereferenceable(32) @_ZZNK2cv4impl12_GLOBAL__N_120CvtColorLoop_InvokerINS_3hal12cpu_baseline12_GLOBAL__N_111YCrCb2RGB_fIfEEEclERKNS_5RangeEE25__cv_trace_location_fn146)
  %4 = load i32, ptr %1, align 4
  %5 = getelementptr inbounds i8, ptr %0, i64 16
  %6 = getelementptr inbounds i8, ptr %0, i64 32
  %7 = getelementptr inbounds i8, ptr %1, i64 4
  %8 = load i32, ptr %7, align 4
  %9 = icmp slt i32 %4, %8
  br i1 %9, label %.lr.ph, label %._crit_edge

.lr.ph:                                           ; preds = %2
  %10 = getelementptr inbounds i8, ptr %0, i64 48
  %11 = getelementptr inbounds i8, ptr %0, i64 40
  %12 = load i32, ptr %11, align 8
  %13 = icmp sgt i32 %12, 0
  br i1 %13, label %.lr.ph.split.preheader, label %._crit_edge

.lr.ph.split.preheader:                           ; preds = %.lr.ph
  %14 = getelementptr inbounds i8, ptr %0, i64 8
  %15 = load ptr, ptr %14, align 8
  %16 = load i64, ptr %5, align 8
  %17 = sext i32 %4 to i64
  %18 = mul i64 %16, %17
  %19 = getelementptr inbounds i8, ptr %15, i64 %18
  %20 = getelementptr inbounds i8, ptr %0, i64 24
  %21 = load ptr, ptr %20, align 8
  %22 = load i64, ptr %6, align 8
  %23 = mul i64 %22, %17
  %24 = getelementptr inbounds i8, ptr %21, i64 %23
  br label %.lr.ph.split

.lr.ph.split:                                     ; preds = %.lr.ph.split.preheader, %_ZNK2cv3hal12cpu_baseline12_GLOBAL__N_111YCrCb2RGB_fIfEclEPKfPfi.exit
  %.017 = phi ptr [ %90, %_ZNK2cv3hal12cpu_baseline12_GLOBAL__N_111YCrCb2RGB_fIfEclEPKfPfi.exit ], [ %19, %.lr.ph.split.preheader ]
  %.01216 = phi ptr [ %92, %_ZNK2cv3hal12cpu_baseline12_GLOBAL__N_111YCrCb2RGB_fIfEclEPKfPfi.exit ], [ %24, %.lr.ph.split.preheader ]
  %.01315 = phi i32 [ %88, %_ZNK2cv3hal12cpu_baseline12_GLOBAL__N_111YCrCb2RGB_fIfEclEPKfPfi.exit ], [ %4, %.lr.ph.split.preheader ]
  %25 = load ptr, ptr %10, align 8
  %26 = load i32, ptr %11, align 8
  %27 = getelementptr inbounds i8, ptr %25, i64 12
  %28 = load float, ptr %27, align 4
  %29 = getelementptr inbounds i8, ptr %25, i64 16
  %30 = load float, ptr %29, align 4
  %31 = getelementptr inbounds i8, ptr %25, i64 20
  %32 = load float, ptr %31, align 4
  %33 = getelementptr inbounds i8, ptr %25, i64 24
  %34 = load float, ptr %33, align 4
  %35 = icmp sgt i32 %26, 0
  br i1 %35, label %.lr.ph.i, label %_ZNK2cv3hal12cpu_baseline12_GLOBAL__N_111YCrCb2RGB_fIfEclEPKfPfi.exit

.lr.ph.i:                                         ; preds = %.lr.ph.split
  %36 = getelementptr inbounds i8, ptr %25, i64 8
  %37 = load i8, ptr %36, align 4
  %38 = and i8 %37, 1
  %39 = xor i8 %38, 1
  %40 = zext nneg i8 %39 to i32
  %41 = getelementptr inbounds i8, ptr %25, i64 4
  %42 = load i32, ptr %41, align 4
  %43 = load i32, ptr %25, align 4
  %44 = add nuw nsw i32 %40, 1
  %45 = zext nneg i32 %44 to i64
  %46 = sub nuw nsw i32 2, %40
  %47 = zext nneg i32 %46 to i64
  %48 = sext i32 %42 to i64
  %49 = xor i32 %42, 2
  %50 = sext i32 %49 to i64
  %51 = icmp eq i32 %43, 4
  %52 = sext i32 %43 to i64
  br i1 %51, label %.lr.ph.split.us.i, label %.lr.ph.split.i

.lr.ph.split.us.i:                                ; preds = %.lr.ph.i, %.lr.ph.split.us.i
  %.041.us.i = phi ptr [ %69, %.lr.ph.split.us.i ], [ %.017, %.lr.ph.i ]
  %.03740.us.i = phi ptr [ %70, %.lr.ph.split.us.i ], [ %.01216, %.lr.ph.i ]
  %.03839.us.i = phi i32 [ %68, %.lr.ph.split.us.i ], [ 0, %.lr.ph.i ]
  %53 = load float, ptr %.041.us.i, align 4
  %54 = getelementptr inbounds float, ptr %.041.us.i, i64 %45
  %55 = load float, ptr %54, align 4
  %56 = getelementptr inbounds float, ptr %.041.us.i, i64 %47
  %57 = load float, ptr %56, align 4
  %58 = fadd float %57, -5.000000e-01
  %59 = call float @llvm.fmuladd.f32(float %58, float %34, float %53)
  %60 = call float @llvm.fmuladd.f32(float %58, float %32, float %53)
  %61 = fadd float %55, -5.000000e-01
  %62 = call float @llvm.fmuladd.f32(float %61, float %30, float %60)
  %63 = call float @llvm.fmuladd.f32(float %61, float %28, float %53)
  %64 = getelementptr inbounds float, ptr %.03740.us.i, i64 %48
  store float %59, ptr %64, align 4
  %65 = getelementptr inbounds i8, ptr %.03740.us.i, i64 4
  store float %62, ptr %65, align 4
  %66 = getelementptr inbounds float, ptr %.03740.us.i, i64 %50
  store float %63, ptr %66, align 4
  %67 = getelementptr inbounds i8, ptr %.03740.us.i, i64 12
  store float 1.000000e+00, ptr %67, align 4
  %68 = add nuw nsw i32 %.03839.us.i, 1
  %69 = getelementptr inbounds i8, ptr %.041.us.i, i64 12
  %70 = getelementptr inbounds float, ptr %.03740.us.i, i64 %52
  %exitcond43.not.i = icmp eq i32 %68, %26
  br i1 %exitcond43.not.i, label %_ZNK2cv3hal12cpu_baseline12_GLOBAL__N_111YCrCb2RGB_fIfEclEPKfPfi.exit, label %.lr.ph.split.us.i, !llvm.loop !98

.lr.ph.split.i:                                   ; preds = %.lr.ph.i, %.lr.ph.split.i
  %.041.i = phi ptr [ %86, %.lr.ph.split.i ], [ %.017, %.lr.ph.i ]
  %.03740.i = phi ptr [ %87, %.lr.ph.split.i ], [ %.01216, %.lr.ph.i ]
  %.03839.i = phi i32 [ %85, %.lr.ph.split.i ], [ 0, %.lr.ph.i ]
  %71 = load float, ptr %.041.i, align 4
  %72 = getelementptr inbounds float, ptr %.041.i, i64 %45
  %73 = load float, ptr %72, align 4
  %74 = getelementptr inbounds float, ptr %.041.i, i64 %47
  %75 = load float, ptr %74, align 4
  %76 = fadd float %75, -5.000000e-01
  %77 = call float @llvm.fmuladd.f32(float %76, float %34, float %71)
  %78 = call float @llvm.fmuladd.f32(float %76, float %32, float %71)
  %79 = fadd float %73, -5.000000e-01
  %80 = call float @llvm.fmuladd.f32(float %79, float %30, float %78)
  %81 = call float @llvm.fmuladd.f32(float %79, float %28, float %71)
  %82 = getelementptr inbounds float, ptr %.03740.i, i64 %48
  store float %77, ptr %82, align 4
  %83 = getelementptr inbounds i8, ptr %.03740.i, i64 4
  store float %80, ptr %83, align 4
  %84 = getelementptr inbounds float, ptr %.03740.i, i64 %50
  store float %81, ptr %84, align 4
  %85 = add nuw nsw i32 %.03839.i, 1
  %86 = getelementptr inbounds i8, ptr %.041.i, i64 12
  %87 = getelementptr inbounds float, ptr %.03740.i, i64 %52
  %exitcond.not.i = icmp eq i32 %85, %26
  br i1 %exitcond.not.i, label %_ZNK2cv3hal12cpu_baseline12_GLOBAL__N_111YCrCb2RGB_fIfEclEPKfPfi.exit, label %.lr.ph.split.i, !llvm.loop !98

_ZNK2cv3hal12cpu_baseline12_GLOBAL__N_111YCrCb2RGB_fIfEclEPKfPfi.exit: ; preds = %.lr.ph.split.i, %.lr.ph.split.us.i, %.lr.ph.split
  %88 = add nsw i32 %.01315, 1
  %89 = load i64, ptr %5, align 8
  %90 = getelementptr inbounds i8, ptr %.017, i64 %89
  %91 = load i64, ptr %6, align 8
  %92 = getelementptr inbounds i8, ptr %.01216, i64 %91
  %93 = load i32, ptr %7, align 4
  %94 = icmp slt i32 %88, %93
  br i1 %94, label %.lr.ph.split, label %._crit_edge, !llvm.loop !99

._crit_edge:                                      ; preds = %_ZNK2cv3hal12cpu_baseline12_GLOBAL__N_111YCrCb2RGB_fIfEclEPKfPfi.exit, %.lr.ph, %2
  %95 = getelementptr inbounds i8, ptr %3, i64 8
  %96 = load i32, ptr %95, align 8
  %.not.i = icmp eq i32 %96, 0
  br i1 %.not.i, label %_ZN2cv5utils5trace7details6RegionD2Ev.exit, label %97

97:                                               ; preds = %._crit_edge
  invoke void @_ZN2cv5utils5trace7details6Region7destroyEv(ptr noundef nonnull align 8 dereferenceable(12) %3)
          to label %_ZN2cv5utils5trace7details6RegionD2Ev.exit unwind label %98

98:                                               ; preds = %97
  %99 = landingpad { ptr, i32 }
          catch ptr null
  %100 = extractvalue { ptr, i32 } %99, 0
  call void @__clang_call_terminate(ptr %100) #13
  unreachable

_ZN2cv5utils5trace7details6RegionD2Ev.exit:       ; preds = %._crit_edge, %97
  ret void
}